target datalayout = "e-m:e-p270:32:32-p271:32:32-p272:64:64-i64:64-i128:128-f80:128-n8:16:32:64-S128"
target triple = "x86_64-pc-linux-gnu"

%class.methodHandle = type { ptr, ptr }
%class.RetTable = type { ptr }
%class.GenerateOopMap = type { ptr, %class.methodHandle, %class.RetTable, i32, i32, i32, i32, i8, %class.Handle, i8, i8, i8, i32, ptr, ptr, i32, i32, ptr, i32, i32, %class.ResourceBitMap, i8, i8, ptr, ptr, i8, i32, ptr, ptr }
%class.Handle = type { ptr }
%class.ResourceBitMap = type { %class.GrowableBitMap }
%class.GrowableBitMap = type { %class.BitMap }
%class.BitMap = type { ptr, i64 }
%class.BasicBlock = type { i8, i32, i32, i32, i32, ptr, i32, i32 }

; Function Attrs: mustprogress nounwind uwtable
define linkonce_odr hidden void @_ZN10BasicBlock11set_changedEb(ptr noundef nonnull align 8 dereferenceable(40) %0, i1 noundef zeroext %1) #1 comdat align 2 {
  %3 = alloca ptr, align 8
  %4 = alloca i8, align 1
  store ptr %0, ptr %3, align 8
  %5 = zext i1 %1 to i8
  store i8 %5, ptr %4, align 1
  %6 = load ptr, ptr %3, align 8
  %7 = load i8, ptr %4, align 1
  %8 = trunc i8 %7 to i1
  %9 = getelementptr inbounds %class.BasicBlock, ptr %6, i32 0, i32 0
  %10 = zext i1 %8 to i8
  store i8 %10, ptr %9, align 8
  ret void
}

; Function Attrs: mustprogress nounwind uwtable
define linkonce_odr hidden noundef zeroext i1 @_ZN10BasicBlock7changedEv(ptr noundef nonnull align 8 dereferenceable(40) %0) #1 comdat align 2 {
  %2 = alloca ptr, align 8
  store ptr %0, ptr %2, align 8
  %3 = load ptr, ptr %2, align 8
  %4 = getelementptr inbounds %class.BasicBlock, ptr %3, i32 0, i32 0
  %5 = load i8, ptr %4, align 8
  %6 = trunc i8 %5 to i1
  ret i1 %6
}

; Function Attrs: mustprogress nounwind uwtable
define hidden void @_ZN14GenerateOopMap10interp_allEv(ptr noundef nonnull align 8 dereferenceable(176) %0) #1 align 2 {
  %2 = alloca ptr, align 8
  %3 = alloca i8, align 1
  %4 = alloca i32, align 4
  %5 = alloca ptr, align 8
  store ptr %0, ptr %2, align 8
  %6 = load ptr, ptr %2, align 8
  store i8 1, ptr %3, align 1
  br label %7

7:                                                ; preds = %50, %1
  %8 = load i8, ptr %3, align 1
  %9 = trunc i8 %8 to i1
  br i1 %9, label %10, label %15

10:                                               ; preds = %7
  %11 = getelementptr inbounds %class.GenerateOopMap, ptr %6, i32 0, i32 7
  %12 = load i8, ptr %11, align 8
  %13 = trunc i8 %12 to i1
  %14 = xor i1 %13, true
  br label %15

15:                                               ; preds = %10, %7
  %16 = phi i1 [ false, %7 ], [ %14, %10 ]
  br i1 %16, label %17, label %51

17:                                               ; preds = %15
  store i8 0, ptr %3, align 1
  store i32 0, ptr %4, align 4
  br label %18

18:                                               ; preds = %47, %17
  %19 = load i32, ptr %4, align 4
  %20 = getelementptr inbounds %class.GenerateOopMap, ptr %6, i32 0, i32 19
  %21 = load i32, ptr %20, align 4
  %22 = icmp slt i32 %19, %21
  br i1 %22, label %23, label %28

23:                                               ; preds = %18
  %24 = getelementptr inbounds %class.GenerateOopMap, ptr %6, i32 0, i32 7
  %25 = load i8, ptr %24, align 8
  %26 = trunc i8 %25 to i1
  %27 = xor i1 %26, true
  br label %28

28:                                               ; preds = %23, %18
  %29 = phi i1 [ false, %18 ], [ %27, %23 ]
  br i1 %29, label %30, label %50

30:                                               ; preds = %28
  %31 = getelementptr inbounds %class.GenerateOopMap, ptr %6, i32 0, i32 17
  %32 = load ptr, ptr %31, align 8
  %33 = load i32, ptr %4, align 4
  %34 = sext i32 %33 to i64
  %35 = getelementptr inbounds %class.BasicBlock, ptr %32, i64 %34
  store ptr %35, ptr %5, align 8
  %36 = load ptr, ptr %5, align 8
  %37 = call noundef zeroext i1 @_ZN10BasicBlock7changedEv(ptr noundef nonnull align 8 dereferenceable(40) %36)
  br i1 %37, label %38, label %46

38:                                               ; preds = %30
  %39 = getelementptr inbounds %class.GenerateOopMap, ptr %6, i32 0, i32 7
  %40 = load i8, ptr %39, align 8
  %41 = trunc i8 %40 to i1
  br i1 %41, label %42, label %43

42:                                               ; preds = %38
  br label %51

43:                                               ; preds = %38
  store i8 1, ptr %3, align 1
  %44 = load ptr, ptr %5, align 8
  call void @_ZN10BasicBlock11set_changedEb(ptr noundef nonnull align 8 dereferenceable(40) %44, i1 noundef zeroext false)
  %45 = load ptr, ptr %5, align 8
  call void @_ZN14GenerateOopMap9interp_bbEP10BasicBlock(ptr noundef nonnull align 8 dereferenceable(176) %6, ptr noundef %45)
  br label %46

46:                                               ; preds = %43, %30
  br label %47

47:                                               ; preds = %46
  %48 = load i32, ptr %4, align 4
  %49 = add nsw i32 %48, 1
  store i32 %49, ptr %4, align 4
  br label %18, !llvm.loop !28

50:                                               ; preds = %28
  br label %7, !llvm.loop !29

51:                                               ; preds = %42, %15
  ret void
}