; Function Attrs: mustprogress nounwind uwtable
define hidden void @_ZN14GenerateOopMap10interp_allEv(ptr noundef nonnull align 8 dereferenceable(176) %0) local_unnamed_addr #0 align 2 {
.critedge11:
  %1 = getelementptr inbounds i8, ptr %0, i64 48
  %2 = getelementptr inbounds i8, ptr %0, i64 108
  %3 = getelementptr inbounds i8, ptr %0, i64 96
  %.pre = load i32, ptr %2, align 4
  br label %4

4:                                                ; preds = %.critedge11, %.critedge2
  %5 = phi i32 [ %.pre, %.critedge11 ], [ %24, %.critedge2 ]
  %6 = phi i32 [ %.pre, %.critedge11 ], [ %25, %.critedge2 ]
  %7 = load i8, ptr %1, align 8
  %8 = trunc i8 %7 to i1
  %9 = icmp slt i32 %6, 1
  %or.cond.not = select i1 %8, i1 true, i1 %9
  br i1 %or.cond.not, label %.critedge, label %.lr.ph.preheader

.lr.ph.preheader:                                 ; preds = %4
  %10 = load i8, ptr %1, align 8
  %11 = trunc i8 %10 to i1
  br i1 %11, label %.critedge2, label %.lr.ph21

.lr.ph:                                           ; preds = %20
  %12 = load i8, ptr %1, align 8
  %13 = trunc i8 %12 to i1
  br i1 %13, label %.critedge2, label %.lr.ph21, !llvm.loop !26

.lr.ph21:                                         ; preds = %.lr.ph.preheader, %.lr.ph
  %.11320 = phi i1 [ %.2, %.lr.ph ], [ false, %.lr.ph.preheader ]
  %indvars.iv19 = phi i64 [ %indvars.iv.next, %.lr.ph ], [ 0, %.lr.ph.preheader ]
  %14 = phi i32 [ %21, %.lr.ph ], [ %5, %.lr.ph.preheader ]
  %15 = load ptr, ptr %3, align 8
  %16 = getelementptr inbounds %class.BasicBlock, ptr %15, i64 %indvars.iv19
  %17 = load i8, ptr %16, align 8
  %18 = trunc i8 %17 to i1
  br i1 %18, label %19, label %20

19:                                               ; preds = %.lr.ph21
  store i8 0, ptr %16, align 8
  tail call void @_ZN14GenerateOopMap9interp_bbEP10BasicBlock(ptr noundef nonnull align 8 dereferenceable(176) %0, ptr noundef nonnull %16)
  %.pre18 = load i32, ptr %2, align 4
  br label %20

20:                                               ; preds = %.lr.ph21, %19
  %21 = phi i32 [ %.pre18, %19 ], [ %14, %.lr.ph21 ]
  %.2 = phi i1 [ true, %19 ], [ %.11320, %.lr.ph21 ]
  %indvars.iv.next = add nuw nsw i64 %indvars.iv19, 1
  %22 = sext i32 %21 to i64
  %23 = icmp slt i64 %indvars.iv.next, %22
  br i1 %23, label %.lr.ph, label %.critedge2, !llvm.loop !26

.critedge2:                                       ; preds = %20, %.lr.ph, %.lr.ph.preheader
  %24 = phi i32 [ %5, %.lr.ph.preheader ], [ %21, %.lr.ph ], [ %21, %20 ]
  %25 = phi i32 [ %6, %.lr.ph.preheader ], [ %21, %.lr.ph ], [ %21, %20 ]
  %.1.lcssa = phi i1 [ false, %.lr.ph.preheader ], [ %.2, %.lr.ph ], [ %.2, %20 ]
  br i1 %.1.lcssa, label %4, label %.critedge

.critedge:                                        ; preds = %.critedge2, %4
  ret void
}